target datalayout = "e-m:e-p270:32:32-p271:32:32-p272:64:64-i64:64-i128:128-f80:128-n8:16:32:64-S128"
target triple = "x86_64-pc-linux-gnu"

; Function Attrs: nounwind uwtable
define internal i32 @big5_is_allowed_reverse_match(ptr noundef %0, ptr noundef %1) #0 {
  %3 = alloca ptr, align 8
  %4 = alloca ptr, align 8
  %5 = alloca i8, align 1
  store ptr %0, ptr %3, align 8, !tbaa !4
  store ptr %1, ptr %4, align 8, !tbaa !4
  call void @llvm.lifetime.start.p0(i64 1, ptr %5) #3
  %6 = load ptr, ptr %3, align 8, !tbaa !4
  %7 = load i8, ptr %6, align 1, !tbaa !9
  store i8 %7, ptr %5, align 1, !tbaa !9
  %8 = load i8, ptr %5, align 1, !tbaa !9
  %9 = zext i8 %8 to i64
  %10 = getelementptr inbounds nuw [256 x i8], ptr @BIG5_CAN_BE_TRAIL_TABLE, i64 0, i64 %9
  %11 = load i8, ptr %10, align 1, !tbaa !9
  %12 = sext i8 %11 to i32
  %13 = icmp ne i32 %12, 0
  %14 = select i1 %13, i32 0, i32 1
  call void @llvm.lifetime.end.p0(i64 1, ptr %5) #3
  ret i32 %14
}